(lp0
S'poi'
p1
aS'salary'
p2
aS'exercised_stock_options'
p3
aS'bonus'
p4
aS'total_stock_value'
p5
aS'deferred_income'
p6
aS'expenses'
p7
aS'total_payments'
p8
aS'long_term_incentive'
p9
aS'restricted_stock'
p10
aS'to_messages'
p11
aS'from_poi_to_this_person'
p12
aS'from_messages'
p13
aS'from_this_person_to_poi'
p14
aS'shared_receipt_with_poi'
p15
aS'stock_to_salary_ratio'
p16
a.